; Function Attrs: nofree norecurse nosync nounwind memory(argmem: readwrite) uwtable
define hidden void @aom_dc_left_predictor_8x32_c(ptr nocapture noundef writeonly %0, i64 noundef %1, ptr nocapture noundef readnone %2, ptr nocapture noundef readonly %3) local_unnamed_addr #0 {
  br label %.lr.ph.i

.lr.ph.i:                                         ; preds = %.lr.ph.i, %4
  %indvars.iv.i = phi i64 [ 0, %4 ], [ %indvars.iv.next.i, %.lr.ph.i ]
  %.02.i = phi i32 [ 0, %4 ], [ %8, %.lr.ph.i ]
  %5 = getelementptr inbounds i8, ptr %3, i64 %indvars.iv.i
  %6 = load i8, ptr %5, align 1
  %7 = zext i8 %6 to i32
  %8 = add nuw nsw i32 %.02.i, %7
  %indvars.iv.next.i = add nuw nsw i64 %indvars.iv.i, 1
  %exitcond.not.i = icmp eq i64 %indvars.iv.next.i, 32
  br i1 %exitcond.not.i, label %._crit_edge.i, label %.lr.ph.i, !llvm.loop !39

._crit_edge.i:                                    ; preds = %.lr.ph.i
  %9 = add nuw nsw i32 %8, 16
  %10 = lshr i32 %9, 5
  %11 = trunc i32 %10 to i8
  br label %12

12:                                               ; preds = %12, %._crit_edge.i
  %.0164.i = phi ptr [ %0, %._crit_edge.i ], [ %13, %12 ]
  %.0173.i = phi i32 [ 0, %._crit_edge.i ], [ %14, %12 ]
  tail call void @llvm.memset.p0.i64(ptr noundef nonnull align 1 dereferenceable(8) %.0164.i, i8 %11, i64 8, i1 false)
  %13 = getelementptr inbounds i8, ptr %.0164.i, i64 %1
  %14 = add nuw nsw i32 %.0173.i, 1
  %exitcond9.not.i = icmp eq i32 %14, 32
  br i1 %exitcond9.not.i, label %dc_left_predictor.exit, label %12, !llvm.loop !40

dc_left_predictor.exit:                           ; preds = %12
  ret void
}